; Function Attrs: mustprogress nofree norecurse nosync nounwind willreturn memory(read, argmem: readwrite, inaccessiblemem: none) uwtable
define internal void @_ZZN7V3Sched14transformForksEP10AstNetlistEN11ForkVisitor5visitEP6AstVar(ptr nocapture noundef nonnull readonly align 8 dereferenceable(56) %0, ptr nocapture noundef writeonly %1) unnamed_addr #14 align 2 {
  %3 = getelementptr inbounds i8, ptr %0, i64 40
  %4 = load ptr, ptr %3, align 8
  %.not = icmp eq ptr %4, null
  br i1 %.not, label %5, label %9

5:                                                ; preds = %2
  %6 = getelementptr inbounds i8, ptr %1, i64 104
  store i64 1, ptr %6, align 8
  %7 = load i32, ptr @_ZN12VNUser1InUse12s_userCntGblE, align 4
  %8 = getelementptr inbounds i8, ptr %1, i64 112
  store i32 %7, ptr %8, align 8
  br label %9

9:                                                ; preds = %5, %2
  ret void
}